target datalayout = "e-m:e-p270:32:32-p271:32:32-p272:64:64-i64:64-i128:128-f80:128-n8:16:32:64-S128"
target triple = "x86_64-pc-linux-gnu"

%struct.Ssw_Man_t_ = type { ptr, i32, ptr, ptr, ptr, ptr, i32, ptr, ptr, ptr, i32, i32, i32, i32, i32, i32, i32, i32, i32, i32, i32, ptr, i32, ptr, i32, i32, i32, i32, ptr, ptr, ptr, i32, ptr, i32, i32, ptr, ptr, ptr, i32, ptr, i32, i32, i32, i32, i32, i32, i32, i32, i32, i32, i32, i32, i32, i32, i32, i32, i32, i32, i32, i32, i32, i32, i64, i64, i64, i64, i64, i64, i64, i64, i64, i64 }
%struct.Aig_Man_t_ = type { ptr, ptr, ptr, ptr, ptr, ptr, ptr, %struct.Aig_Obj_t_, i32, i32, i32, i32, i32, i32, [7 x i32], i32, ptr, i32, ptr, i32, ptr, i32, i32, i32, ptr, i32, i32, i32, i32, i32, ptr, ptr, i32, ptr, ptr, i32, ptr, ptr, i32, i32, i32, ptr, ptr, ptr, ptr, ptr, ptr, ptr, ptr, ptr, ptr, ptr, ptr, ptr, ptr, i32, ptr, ptr, ptr, ptr, i32, i64, i64, i64, ptr, ptr }
%struct.Aig_Obj_t_ = type { %union.anon, ptr, ptr, i64, i32, i32, %union.anon.0 }
%union.anon = type { ptr }
%union.anon.0 = type { ptr }

; Function Attrs: nounwind uwtable
define internal i32 @Aig_ManRegNum(ptr noundef %0) #0 {
  %2 = alloca ptr, align 8
  store ptr %0, ptr %2, align 8
  %3 = load ptr, ptr %2, align 8
  %4 = getelementptr inbounds %struct.Aig_Man_t_, ptr %3, i32 0, i32 8
  %5 = load i32, ptr %4, align 8
  ret i32 %5
}

; Function Attrs: nounwind uwtable
define internal i32 @Aig_ManNodeNum(ptr noundef %0) #0 {
  %2 = alloca ptr, align 8
  store ptr %0, ptr %2, align 8
  %3 = load ptr, ptr %2, align 8
  %4 = getelementptr inbounds %struct.Aig_Man_t_, ptr %3, i32 0, i32 14
  %5 = getelementptr inbounds [7 x i32], ptr %4, i64 0, i64 5
  %6 = load i32, ptr %5, align 4
  %7 = load ptr, ptr %2, align 8
  %8 = getelementptr inbounds %struct.Aig_Man_t_, ptr %7, i32 0, i32 14
  %9 = getelementptr inbounds [7 x i32], ptr %8, i64 0, i64 6
  %10 = load i32, ptr %9, align 8
  %11 = add nsw i32 %6, %10
  ret i32 %11
}

; Function Attrs: nounwind uwtable
define void @Ssw_ReportConeReductions(ptr noundef %0, ptr noundef %1, ptr noundef %2) #0 {
  %4 = alloca ptr, align 8
  %5 = alloca ptr, align 8
  %6 = alloca ptr, align 8
  %7 = alloca ptr, align 8
  %8 = alloca ptr, align 8
  %9 = alloca ptr, align 8
  store ptr %0, ptr %4, align 8
  store ptr %1, ptr %5, align 8
  store ptr %2, ptr %6, align 8
  %10 = load ptr, ptr %5, align 8
  %11 = call ptr @Aig_ManDupOneOutput(ptr noundef %10, i32 noundef 0, i32 noundef 1)
  store ptr %11, ptr %7, align 8
  %12 = load ptr, ptr %7, align 8
  store ptr %12, ptr %9, align 8
  %13 = call ptr @Aig_ManScl(ptr noundef %12, i32 noundef 1, i32 noundef 1, i32 noundef 0, i32 noundef -1, i32 noundef -1, i32 noundef 0, i32 noundef 0)
  store ptr %13, ptr %7, align 8
  %14 = load ptr, ptr %9, align 8
  call void @Aig_ManStop(ptr noundef %14)
  %15 = load ptr, ptr %6, align 8
  %16 = call ptr @Aig_ManDupOneOutput(ptr noundef %15, i32 noundef 0, i32 noundef 1)
  store ptr %16, ptr %8, align 8
  %17 = load ptr, ptr %8, align 8
  store ptr %17, ptr %9, align 8
  %18 = call ptr @Aig_ManScl(ptr noundef %17, i32 noundef 1, i32 noundef 1, i32 noundef 0, i32 noundef -1, i32 noundef -1, i32 noundef 0, i32 noundef 0)
  store ptr %18, ptr %8, align 8
  %19 = load ptr, ptr %9, align 8
  call void @Aig_ManStop(ptr noundef %19)
  %20 = load ptr, ptr %7, align 8
  %21 = call i32 @Aig_ManNodeNum(ptr noundef %20)
  %22 = load ptr, ptr %4, align 8
  %23 = getelementptr inbounds %struct.Ssw_Man_t_, ptr %22, i32 0, i32 58
  store i32 %21, ptr %23, align 8
  %24 = load ptr, ptr %8, align 8
  %25 = call i32 @Aig_ManNodeNum(ptr noundef %24)
  %26 = load ptr, ptr %4, align 8
  %27 = getelementptr inbounds %struct.Ssw_Man_t_, ptr %26, i32 0, i32 59
  store i32 %25, ptr %27, align 4
  %28 = load ptr, ptr %7, align 8
  %29 = call i32 @Aig_ManRegNum(ptr noundef %28)
  %30 = load ptr, ptr %4, align 8
  %31 = getelementptr inbounds %struct.Ssw_Man_t_, ptr %30, i32 0, i32 60
  store i32 %29, ptr %31, align 8
  %32 = load ptr, ptr %8, align 8
  %33 = call i32 @Aig_ManRegNum(ptr noundef %32)
  %34 = load ptr, ptr %4, align 8
  %35 = getelementptr inbounds %struct.Ssw_Man_t_, ptr %34, i32 0, i32 61
  store i32 %33, ptr %35, align 4
  %36 = load ptr, ptr %7, align 8
  call void @Aig_ManStop(ptr noundef %36)
  %37 = load ptr, ptr %8, align 8
  call void @Aig_ManStop(ptr noundef %37)
  ret void
}