; Function Attrs: nounwind uwtable
define void @Ssw_ReportConeReductions(ptr noundef writeonly captures(none) initializes((328, 344)) %0, ptr noundef %1, ptr noundef %2) local_unnamed_addr #2 {
  %4 = tail call ptr @Aig_ManDupOneOutput(ptr noundef %1, i32 noundef 0, i32 noundef 1) #13
  %5 = tail call ptr @Aig_ManScl(ptr noundef %4, i32 noundef 1, i32 noundef 1, i32 noundef 0, i32 noundef -1, i32 noundef -1, i32 noundef 0, i32 noundef 0) #13
  tail call void @Aig_ManStop(ptr noundef %4) #13
  %6 = tail call ptr @Aig_ManDupOneOutput(ptr noundef %2, i32 noundef 0, i32 noundef 1) #13
  %7 = tail call ptr @Aig_ManScl(ptr noundef %6, i32 noundef 1, i32 noundef 1, i32 noundef 0, i32 noundef -1, i32 noundef -1, i32 noundef 0, i32 noundef 0) #13
  tail call void @Aig_ManStop(ptr noundef %6) #13
  %8 = getelementptr i8, ptr %5, i64 148
  %.val = load i32, ptr %8, align 4
  %9 = getelementptr i8, ptr %5, i64 152
  %.val16 = load i32, ptr %9, align 8
  %10 = add nsw i32 %.val16, %.val
  %11 = getelementptr inbounds nuw i8, ptr %0, i64 328
  store i32 %10, ptr %11, align 8
  %12 = getelementptr i8, ptr %7, i64 148
  %.val17 = load i32, ptr %12, align 4
  %13 = getelementptr i8, ptr %7, i64 152
  %.val18 = load i32, ptr %13, align 8
  %14 = add nsw i32 %.val18, %.val17
  %15 = getelementptr inbounds nuw i8, ptr %0, i64 332
  store i32 %14, ptr %15, align 4
  %16 = getelementptr i8, ptr %5, i64 104
  %.val19 = load i32, ptr %16, align 8
  %17 = getelementptr inbounds nuw i8, ptr %0, i64 336
  store i32 %.val19, ptr %17, align 8
  %18 = getelementptr i8, ptr %7, i64 104
  %.val20 = load i32, ptr %18, align 8
  %19 = getelementptr inbounds nuw i8, ptr %0, i64 340
  store i32 %.val20, ptr %19, align 4
  tail call void @Aig_ManStop(ptr noundef %5) #13
  tail call void @Aig_ManStop(ptr noundef %7) #13
  ret void
}